(dp1
S'XDG_SEAT_PATH'
p2
S'/org/freedesktop/DisplayManager/Seat0'
p3
sS'ROS_IP'
p4
S'10.8.190.94'
p5
sS'HOME'
p6
S'/home/asdf'
p7
sS'LD_LIBRARY_PATH'
p8
S'/opt/ros/hydro/lib:/opt/ros/hydro/lib/python2.7/dist-packages'
p9
sS'LANG'
p10
S'en_US.UTF-8'
p11
sS'SHELL'
p12
S'/bin/bash'
p13
sS'XDG_DATA_DIRS'
p14
S'/usr/share/ubuntu-2d:/usr/share/gnome:/usr/local/share/:/usr/share/'
p15
sS'MANDATORY_PATH'
p16
S'/usr/share/gconf/ubuntu-2d.mandatory.path'
p17
sS'PYTHONPATH'
p18
S'/opt/ros/hydro/lib/python2.7/dist-packages'
p19
sS'ROS_ROOT'
p20
S'/opt/ros/hydro/share/ros'
p21
sS'LESSOPEN'
p22
S'| /usr/bin/lesspipe %s'
p23
sS'DBUS_SESSION_BUS_ADDRESS'
p24
S'unix:abstract=/tmp/dbus-xsMO9sL6ZE,guid=0fb59a3d883024602f2b394a0000001e'
p25
sS'DESKTOP_SESSION'
p26
S'ubuntu-2d'
p27
sS'LESSCLOSE'
p28
S'/usr/bin/lesspipe %s %s'
p29
sS'DEFAULTS_PATH'
p30
S'/usr/share/gconf/ubuntu-2d.default.path'
p31
sS'ROS_ETC_DIR'
p32
S'/opt/ros/hydro/etc/ros'
p33
sS'LS_COLORS'
p34
S'rs=0:di=01;34:ln=01;36:mh=00:pi=40;33:so=01;35:do=01;35:bd=40;33;01:cd=40;33;01:or=40;31;01:su=37;41:sg=30;43:ca=30;41:tw=30;42:ow=34;42:st=37;44:ex=01;32:*.tar=01;31:*.tgz=01;31:*.arj=01;31:*.taz=01;31:*.lzh=01;31:*.lzma=01;31:*.tlz=01;31:*.txz=01;31:*.zip=01;31:*.z=01;31:*.Z=01;31:*.dz=01;31:*.gz=01;31:*.lz=01;31:*.xz=01;31:*.bz2=01;31:*.bz=01;31:*.tbz=01;31:*.tbz2=01;31:*.tz=01;31:*.deb=01;31:*.rpm=01;31:*.jar=01;31:*.war=01;31:*.ear=01;31:*.sar=01;31:*.rar=01;31:*.ace=01;31:*.zoo=01;31:*.cpio=01;31:*.7z=01;31:*.rz=01;31:*.jpg=01;35:*.jpeg=01;35:*.gif=01;35:*.bmp=01;35:*.pbm=01;35:*.pgm=01;35:*.ppm=01;35:*.tga=01;35:*.xbm=01;35:*.xpm=01;35:*.tif=01;35:*.tiff=01;35:*.png=01;35:*.svg=01;35:*.svgz=01;35:*.mng=01;35:*.pcx=01;35:*.mov=01;35:*.mpg=01;35:*.mpeg=01;35:*.m2v=01;35:*.mkv=01;35:*.webm=01;35:*.ogm=01;35:*.mp4=01;35:*.m4v=01;35:*.mp4v=01;35:*.vob=01;35:*.qt=01;35:*.nuv=01;35:*.wmv=01;35:*.asf=01;35:*.rm=01;35:*.rmvb=01;35:*.flc=01;35:*.avi=01;35:*.fli=01;35:*.flv=01;35:*.gl=01;35:*.dl=01;35:*.xcf=01;35:*.xwd=01;35:*.yuv=01;35:*.cgm=01;35:*.emf=01;35:*.axv=01;35:*.anx=01;35:*.ogv=01;35:*.ogx=01;35:*.aac=00;36:*.au=00;36:*.flac=00;36:*.mid=00;36:*.midi=00;36:*.mka=00;36:*.mp3=00;36:*.mpc=00;36:*.ogg=00;36:*.ra=00;36:*.wav=00;36:*.axa=00;36:*.oga=00;36:*.spx=00;36:*.xspf=00;36:'
p35
sS'ROS_DISTRO'
p36
S'hydro'
p37
sS'GNOME_DESKTOP_SESSION_ID'
p38
S'this-is-deprecated'
p39
sS'XDG_CURRENT_DESKTOP'
p40
S'Unity'
p41
sS'ROSLISP_PACKAGE_DIRECTORIES'
p42
S''
sS'CPATH'
p43
S'/opt/ros/hydro/include'
p44
sS'LOGNAME'
p45
S'asdf'
p46
sS'USER'
p47
g46
sS'GNOME_KEYRING_CONTROL'
p48
S'/tmp/keyring-RyYGKl'
p49
sS'ROS_HOSTNAME'
p50
g46
sS'PATH'
p51
S'/opt/ros/hydro/bin:/usr/lib/lightdm/lightdm:/usr/local/sbin:/usr/local/bin:/usr/sbin:/usr/bin:/sbin:/bin:/usr/games'
p52
sS'CMAKE_PREFIX_PATH'
p53
S'/opt/ros/hydro'
p54
sS'SSH_AGENT_PID'
p55
S'1497'
p56
sS'TERM'
p57
S'xterm'
p58
sS'XDG_SESSION_PATH'
p59
S'/org/freedesktop/DisplayManager/Session0'
p60
sS'XDG_SESSION_COOKIE'
p61
S'0be3f6bebcf14c7b4aa62a7a0000000f-1423775401.555421-1408391649'
p62
sS'SESSION_MANAGER'
p63
S'local/asdf:@/tmp/.ICE-unix/1461,unix/asdf:/tmp/.ICE-unix/1461'
p64
sS'SHLVL'
p65
S'1'
sS'DISPLAY'
p66
S':0'
p67
sS'WINDOWID'
p68
S'62914565'
p69
sS'GPG_AGENT_INFO'
p70
S'/tmp/keyring-RyYGKl/gpg:0:1'
p71
sS'SSH_AUTH_SOCK'
p72
S'/tmp/keyring-RyYGKl/ssh'
p73
sS'GDMSESSION'
p74
g27
sS'PKG_CONFIG_PATH'
p75
S'/opt/ros/hydro/lib/pkgconfig'
p76
sS'ROS_PACKAGE_PATH'
p77
S'/opt/ros/hydro/share:/opt/ros/hydro/stacks'
p78
sS'XAUTHORITY'
p79
S'/home/asdf/.Xauthority'
p80
sS'XDG_CONFIG_DIRS'
p81
S'/etc/xdg/xdg-ubuntu-2d:/etc/xdg'
p82
sS'UBUNTU_MENUPROXY'
p83
S'libappmenu.so'
p84
sS'PWD'
p85
g7
sS'ROS_MASTER_URI'
p86
S'http://squirrel:11311'
p87
sS'COLORTERM'
p88
S'gnome-terminal'
p89
s.