(dp1
S'ROS_DISTRO'
p2
S'hydro'
p3
sS'LESSOPEN'
p4
S'| /usr/bin/lesspipe %s'
p5
sS'SSH_CLIENT'
p6
S'10.8.72.243 52820 22'
p7
sS'CPATH'
p8
S'/opt/ros/hydro/include'
p9
sS'LOGNAME'
p10
S'squirrel'
p11
sS'USER'
p12
g11
sS'HOME'
p13
S'/home/squirrel'
p14
sS'ROS_HOSTNAME'
p15
S'squirrel-Precision-M6300'
p16
sS'PATH'
p17
S'/opt/ros/hydro/bin:/usr/local/sbin:/usr/local/bin:/usr/sbin:/usr/bin:/sbin:/bin:/usr/games'
p18
sS'CMAKE_PREFIX_PATH'
p19
S'/opt/ros/hydro'
p20
sS'LD_LIBRARY_PATH'
p21
S'/opt/ros/hydro/lib:/opt/ros/hydro/lib/python2.7/dist-packages'
p22
sS'LANG'
p23
S'en_US.UTF-8'
p24
sS'TERM'
p25
S'xterm-256color'
p26
sS'SHELL'
p27
S'/bin/bash'
p28
sS'XDG_SESSION_COOKIE'
p29
S'59f8830617570f2292e181190000000d-1423869004.482697-819750221'
p30
sS'SHLVL'
p31
S'1'
sS'ROS_ETC_DIR'
p32
S'/opt/ros/hydro/etc/ros'
p33
sS'PYTHONPATH'
p34
S'/opt/ros/hydro/lib/python2.7/dist-packages'
p35
sS'ROS_IP'
p36
S'10.9.160.238'
p37
sS'ROS_ROOT'
p38
S'/opt/ros/hydro/share/ros'
p39
sS'PKG_CONFIG_PATH'
p40
S'/opt/ros/hydro/lib/pkgconfig'
p41
sS'ROS_PACKAGE_PATH'
p42
S'/opt/ros/hydro/share:/opt/ros/hydro/stacks:/home/squirrel/thesis/ROS/helloworld/turtlebot_driver_test/'
p43
sS'SSH_CONNECTION'
p44
S'10.8.72.243 52820 10.9.160.238 22'
p45
sS'LESSCLOSE'
p46
S'/usr/bin/lesspipe %s %s'
p47
sS'SSH_TTY'
p48
S'/dev/pts/2'
p49
sS'ROSLISP_PACKAGE_DIRECTORIES'
p50
S''
sS'PWD'
p51
g14
sS'ROS_MASTER_URI'
p52
S'http://squirrel-Precision-M6300:11311'
p53
sS'MAIL'
p54
S'/var/mail/squirrel'
p55
sS'LS_COLORS'
p56
S'rs=0:di=01;34:ln=01;36:mh=00:pi=40;33:so=01;35:do=01;35:bd=40;33;01:cd=40;33;01:or=40;31;01:su=37;41:sg=30;43:ca=30;41:tw=30;42:ow=34;42:st=37;44:ex=01;32:*.tar=01;31:*.tgz=01;31:*.arj=01;31:*.taz=01;31:*.lzh=01;31:*.lzma=01;31:*.tlz=01;31:*.txz=01;31:*.zip=01;31:*.z=01;31:*.Z=01;31:*.dz=01;31:*.gz=01;31:*.lz=01;31:*.xz=01;31:*.bz2=01;31:*.bz=01;31:*.tbz=01;31:*.tbz2=01;31:*.tz=01;31:*.deb=01;31:*.rpm=01;31:*.jar=01;31:*.war=01;31:*.ear=01;31:*.sar=01;31:*.rar=01;31:*.ace=01;31:*.zoo=01;31:*.cpio=01;31:*.7z=01;31:*.rz=01;31:*.jpg=01;35:*.jpeg=01;35:*.gif=01;35:*.bmp=01;35:*.pbm=01;35:*.pgm=01;35:*.ppm=01;35:*.tga=01;35:*.xbm=01;35:*.xpm=01;35:*.tif=01;35:*.tiff=01;35:*.png=01;35:*.svg=01;35:*.svgz=01;35:*.mng=01;35:*.pcx=01;35:*.mov=01;35:*.mpg=01;35:*.mpeg=01;35:*.m2v=01;35:*.mkv=01;35:*.webm=01;35:*.ogm=01;35:*.mp4=01;35:*.m4v=01;35:*.mp4v=01;35:*.vob=01;35:*.qt=01;35:*.nuv=01;35:*.wmv=01;35:*.asf=01;35:*.rm=01;35:*.rmvb=01;35:*.flc=01;35:*.avi=01;35:*.fli=01;35:*.flv=01;35:*.gl=01;35:*.dl=01;35:*.xcf=01;35:*.xwd=01;35:*.yuv=01;35:*.cgm=01;35:*.emf=01;35:*.axv=01;35:*.anx=01;35:*.ogv=01;35:*.ogx=01;35:*.aac=00;36:*.au=00;36:*.flac=00;36:*.mid=00;36:*.midi=00;36:*.mka=00;36:*.mp3=00;36:*.mpc=00;36:*.ogg=00;36:*.ra=00;36:*.wav=00;36:*.axa=00;36:*.oga=00;36:*.spx=00;36:*.xspf=00;36:'
p57
s.