(dp1
S'128_112_49_207'
p2
(dp3
S'processes'
p4
(dp5
S'roscore\n'
p6
F0.012961864471435547
sS'rosrun activity_monitor cpu_utilization.py\n'
p7
F6.5671019554138184
sS'roslaunch turtlebot_navigation amcl_demo_edited.launch map_file:=/tmp/ee_small.yaml\n'
p8
F16.893002986907959
ssS'activity'
p9
cnumpy.core.multiarray
_reconstruct
p10
(cnumpy
ndarray
p11
(I0
tS'b'
tRp12
(I1
(I0
tcnumpy
dtype
p13
(S'f8'
I0
I1
tRp14
(I3
S'<'
NNNI-1
I-1
I0
tbI00
S''
tbsS'time'
p15
g10
(g11
(I0
tS'b'
tRp16
(I1
(I0
tg14
I00
S''
tbssS'10_8_190_94'
p17
(dp18
g4
(dp19
S'roslaunch turtlebot_bringup minimal.launch\n'
p20
F6.8440239429473877
sg7
F6.586223840713501
sS'roslaunch turtlebot_bringup 3dsensor_edited.launch\n'
p21
F11.868667840957642
ssg9
g10
(g11
(I0
tS'b'
tRp22
(I1
(I0
tg14
I00
S''
tbsg15
g10
(g11
(I0
tS'b'
tRp23
(I1
(I0
tg14
I00
S''
tbss.