(dp1
S'10_9_160_238'
p2
(dp3
S'filtered activity'
p4
cnumpy.core.multiarray
_reconstruct
p5
(cnumpy
ndarray
p6
(I0
tS'b'
tRp7
(I1
(I0
tcnumpy
dtype
p8
(S'f8'
I0
I1
tRp9
(I3
S'<'
NNNI-1
I-1
I0
tbI00
S''
tbsS'processes'
p10
(dp11
S'roscore\n'
p12
(lp13
F0.034016847610473633
assS'raw activity'
p14
g5
(g6
(I0
tS'b'
tRp15
(I1
(I0
tg9
I00
S''
tbsS'time'
p16
g5
(g6
(I0
tS'b'
tRp17
(I1
(I0
tg9
I00
S''
tbss.