(dp1
S'128_112_49_207'
p2
(dp3
S'processes'
p4
(dp5
S'roscore\n'
p6
F0.012527942657470703
sS'rosrun activity_monitor cpu_utilization.py\n'
p7
F5.5500509738922119
ssS'activity'
p8
cnumpy.core.multiarray
_reconstruct
p9
(cnumpy
ndarray
p10
(I0
tS'b'
tRp11
(I1
(I0
tcnumpy
dtype
p12
(S'f8'
I0
I1
tRp13
(I3
S'<'
NNNI-1
I-1
I0
tbI00
S''
tbsS'time'
p14
g9
(g10
(I0
tS'b'
tRp15
(I1
(I0
tg13
I00
S''
tbssS'10_8_190_94'
p16
(dp17
g4
(dp18
S'roslaunch turtlebot_bringup minimal.launch\n'
p19
F5.8100869655609131
sS'roslaunch turtlebot_navigation amcl_demo_edited.launch map_file:=/tmp/ee_small.yaml\n'
p20
F15.857611894607544
sg7
F5.5644059181213379
sS'roslaunch turtlebot_bringup 3dsensor_edited.launch\n'
p21
F10.833868026733398
ssg8
g9
(g10
(I0
tS'b'
tRp22
(I1
(I0
tg13
I00
S''
tbsg14
g9
(g10
(I0
tS'b'
tRp23
(I1
(I0
tg13
I00
S''
tbss.