(dp1
S'10_9_160_238'
p2
(dp3
S'processes'
p4
(dp5
S'roscore\n'
p6
F0.01607203483581543
ssS'activity'
p7
cnumpy.core.multiarray
_reconstruct
p8
(cnumpy
ndarray
p9
(I0
tS'b'
tRp10
(I1
(I0
tcnumpy
dtype
p11
(S'f8'
I0
I1
tRp12
(I3
S'<'
NNNI-1
I-1
I0
tbI00
S''
tbsS'time'
p13
g8
(g9
(I0
tS'b'
tRp14
(I1
(I0
tg12
I00
S''
tbss.